target datalayout = "e-m:e-p270:32:32-p271:32:32-p272:64:64-i64:64-i128:128-f80:128-n8:16:32:64-S128"
target triple = "x86_64-pc-linux-gnu"

%struct.x509_store_ctx_st = type { ptr, i32, ptr, ptr, ptr, ptr, ptr, ptr, ptr, ptr, ptr, ptr, ptr, ptr, ptr, ptr, ptr, ptr, ptr, i32, i32, ptr, ptr, i32, i32, i32, ptr, ptr, ptr, i32, i32, ptr, %struct.crypto_ex_data_st }
%struct.crypto_ex_data_st = type { ptr }

; Function Attrs: nounwind uwtable
define internal ptr @find_issuer(ptr noundef %0, ptr noundef %1, ptr noundef %2) #0 {
  %4 = alloca ptr, align 8
  %5 = alloca ptr, align 8
  %6 = alloca ptr, align 8
  %7 = alloca ptr, align 8
  %8 = alloca i64, align 8
  %9 = alloca ptr, align 8
  %10 = alloca i32, align 4
  store ptr %0, ptr %5, align 8, !tbaa !6
  store ptr %1, ptr %6, align 8, !tbaa !26
  store ptr %2, ptr %7, align 8, !tbaa !11
  call void @llvm.lifetime.start.p0(i64 8, ptr %8) #8
  call void @llvm.lifetime.start.p0(i64 8, ptr %9) #8
  store i64 0, ptr %8, align 8, !tbaa !63
  br label %11

11:                                               ; preds = %31, %3
  %12 = load i64, ptr %8, align 8, !tbaa !63
  %13 = load ptr, ptr %6, align 8, !tbaa !26
  %14 = call i64 @sk_num(ptr noundef %13)
  %15 = icmp ult i64 %12, %14
  br i1 %15, label %16, label %34

16:                                               ; preds = %11
  %17 = load ptr, ptr %6, align 8, !tbaa !26
  %18 = load i64, ptr %8, align 8, !tbaa !63
  %19 = call ptr @sk_value(ptr noundef %17, i64 noundef %18)
  store ptr %19, ptr %9, align 8, !tbaa !11
  %20 = load ptr, ptr %5, align 8, !tbaa !6
  %21 = getelementptr inbounds nuw %struct.x509_store_ctx_st, ptr %20, i32 0, i32 10
  %22 = load ptr, ptr %21, align 8, !tbaa !48
  %23 = load ptr, ptr %5, align 8, !tbaa !6
  %24 = load ptr, ptr %7, align 8, !tbaa !11
  %25 = load ptr, ptr %9, align 8, !tbaa !11
  %26 = call i32 %22(ptr noundef %23, ptr noundef %24, ptr noundef %25)
  %27 = icmp ne i32 %26, 0
  br i1 %27, label %28, label %30

28:                                               ; preds = %16
  %29 = load ptr, ptr %9, align 8, !tbaa !11
  store ptr %29, ptr %4, align 8
  store i32 1, ptr %10, align 4
  br label %35

30:                                               ; preds = %16
  br label %31

31:                                               ; preds = %30
  %32 = load i64, ptr %8, align 8, !tbaa !63
  %33 = add i64 %32, 1
  store i64 %33, ptr %8, align 8, !tbaa !63
  br label %11, !llvm.loop !64

34:                                               ; preds = %11
  store ptr null, ptr %4, align 8
  store i32 1, ptr %10, align 4
  br label %35

35:                                               ; preds = %34, %28
  call void @llvm.lifetime.end.p0(i64 8, ptr %9) #8
  call void @llvm.lifetime.end.p0(i64 8, ptr %8) #8
  %36 = load ptr, ptr %4, align 8
  ret ptr %36
}

; Function Attrs: nounwind uwtable
define internal i32 @get_issuer_sk(ptr noundef %0, ptr noundef %1, ptr noundef %2) #0 {
  %4 = alloca i32, align 4
  %5 = alloca ptr, align 8
  %6 = alloca ptr, align 8
  %7 = alloca ptr, align 8
  store ptr %0, ptr %5, align 8, !tbaa !173
  store ptr %1, ptr %6, align 8, !tbaa !6
  store ptr %2, ptr %7, align 8, !tbaa !11
  %8 = load ptr, ptr %6, align 8, !tbaa !6
  %9 = load ptr, ptr %6, align 8, !tbaa !6
  %10 = getelementptr inbounds nuw %struct.x509_store_ctx_st, ptr %9, i32 0, i32 6
  %11 = load ptr, ptr %10, align 8, !tbaa !172
  %12 = load ptr, ptr %7, align 8, !tbaa !11
  %13 = call ptr @find_issuer(ptr noundef %8, ptr noundef %11, ptr noundef %12)
  %14 = load ptr, ptr %5, align 8, !tbaa !173
  store ptr %13, ptr %14, align 8, !tbaa !11
  %15 = load ptr, ptr %5, align 8, !tbaa !173
  %16 = load ptr, ptr %15, align 8, !tbaa !11
  %17 = icmp ne ptr %16, null
  br i1 %17, label %18, label %22

18:                                               ; preds = %3
  %19 = load ptr, ptr %5, align 8, !tbaa !173
  %20 = load ptr, ptr %19, align 8, !tbaa !11
  %21 = call ptr @X509_up_ref(ptr noundef %20)
  store i32 1, ptr %4, align 4
  br label %23

22:                                               ; preds = %3
  store i32 0, ptr %4, align 4
  br label %23

23:                                               ; preds = %22, %18
  %24 = load i32, ptr %4, align 4
  ret i32 %24
}