; Function Attrs: nounwind uwtable
define internal range(i32 0, 2) i32 @get_issuer_sk(ptr noundef writeonly captures(none) %0, ptr noundef %1, ptr noundef %2) #0 {
  %4 = getelementptr inbounds nuw i8, ptr %1, i64 48
  %5 = load ptr, ptr %4, align 8, !tbaa !163
  %6 = tail call i64 @sk_num(ptr noundef %5) #14
  %.not14.i = icmp eq i64 %6, 0
  br i1 %.not14.i, label %find_issuer.exit.thread, label %.lr.ph.i

.lr.ph.i:                                         ; preds = %3
  %7 = getelementptr inbounds nuw i8, ptr %1, i64 80
  br label %12

8:                                                ; preds = %12
  %9 = add nuw i64 %.01011.i, 1
  %10 = tail call i64 @sk_num(ptr noundef %5) #14
  %11 = icmp ult i64 %9, %10
  br i1 %11, label %12, label %find_issuer.exit.thread, !llvm.loop !47

12:                                               ; preds = %8, %.lr.ph.i
  %.01011.i = phi i64 [ 0, %.lr.ph.i ], [ %9, %8 ]
  %13 = tail call ptr @sk_value(ptr noundef %5, i64 noundef %.01011.i) #14
  %14 = load ptr, ptr %7, align 8, !tbaa !49
  %15 = tail call i32 %14(ptr noundef nonnull %1, ptr noundef %2, ptr noundef %13) #14
  %.not.i = icmp eq i32 %15, 0
  br i1 %.not.i, label %8, label %find_issuer.exit

find_issuer.exit.thread:                          ; preds = %8, %3
  store ptr null, ptr %0, align 8, !tbaa !46
  br label %18

find_issuer.exit:                                 ; preds = %12
  store ptr %13, ptr %0, align 8, !tbaa !46
  %.not = icmp eq ptr %13, null
  br i1 %.not, label %18, label %16

16:                                               ; preds = %find_issuer.exit
  %17 = tail call ptr @X509_up_ref(ptr noundef nonnull %13) #14
  br label %18

18:                                               ; preds = %find_issuer.exit.thread, %find_issuer.exit, %16
  %.0 = phi i32 [ 1, %16 ], [ 0, %find_issuer.exit ], [ 0, %find_issuer.exit.thread ]
  ret i32 %.0
}